target datalayout = "e-m:e-p270:32:32-p271:32:32-p272:64:64-i64:64-i128:128-f80:128-n8:16:32:64-S128"
target triple = "x86_64-pc-linux-gnu"

%"class.gmx::ArrayRef" = type { %"struct.gmx::ArrayRefIter", %"struct.gmx::ArrayRefIter" }
%"struct.gmx::ArrayRefIter" = type { ptr }
%union.t_iparams = type { %struct.anon.21 }
%struct.anon.21 = type { [3 x float], [3 x float], [3 x float], [3 x float] }
%struct.anon.9 = type { float }

; Function Attrs: mustprogress nounwind uwtable
define linkonce_odr noundef nonnull align 4 dereferenceable(4) ptr @_ZNK3gmx12ArrayRefIterIKfEdeEv(ptr noundef nonnull align 8 dereferenceable(8) %0) #3 comdat align 2 {
  %2 = alloca ptr, align 8
  store ptr %0, ptr %2, align 8
  %3 = load ptr, ptr %2, align 8
  %4 = getelementptr inbounds %"struct.gmx::ArrayRefIter", ptr %3, i32 0, i32 0
  %5 = load ptr, ptr %4, align 8
  ret ptr %5
}

; Function Attrs: mustprogress nounwind uwtable
define linkonce_odr noundef nonnull align 8 dereferenceable(8) ptr @_ZN3gmx12ArrayRefIterIKfEpLEl(ptr noundef nonnull align 8 dereferenceable(8) %0, i64 noundef %1) #3 comdat align 2 {
  %3 = alloca ptr, align 8
  %4 = alloca i64, align 8
  store ptr %0, ptr %3, align 8
  store i64 %1, ptr %4, align 8
  %5 = load ptr, ptr %3, align 8
  %6 = load i64, ptr %4, align 8
  %7 = getelementptr inbounds %"struct.gmx::ArrayRefIter", ptr %5, i32 0, i32 0
  %8 = load ptr, ptr %7, align 8
  %9 = getelementptr inbounds float, ptr %8, i64 %6
  store ptr %9, ptr %7, align 8
  ret ptr %5
}

; Function Attrs: mustprogress nounwind uwtable
define linkonce_odr noundef nonnull align 8 dereferenceable(8) ptr @_ZNK3gmx5boost14stl_interfaces2v118iterator_interfaceINS_12ArrayRefIterIKfEESt26random_access_iterator_tagS5_RS5_PS5_lvE7derivedEv(ptr noundef nonnull align 1 dereferenceable(1) %0) #3 comdat align 2 {
  %2 = alloca ptr, align 8
  store ptr %0, ptr %2, align 8
  %3 = load ptr, ptr %2, align 8
  ret ptr %3
}

; Function Attrs: mustprogress nounwind uwtable
define internal void @_ZL8rvec_subPKfS0_Pf(ptr noundef %0, ptr noundef %1, ptr noundef %2) #3 {
  %4 = alloca ptr, align 8
  %5 = alloca ptr, align 8
  %6 = alloca ptr, align 8
  %7 = alloca float, align 4
  %8 = alloca float, align 4
  %9 = alloca float, align 4
  store ptr %0, ptr %4, align 8
  store ptr %1, ptr %5, align 8
  store ptr %2, ptr %6, align 8
  %10 = load ptr, ptr %4, align 8
  %11 = getelementptr inbounds float, ptr %10, i64 0
  %12 = load float, ptr %11, align 4
  %13 = load ptr, ptr %5, align 8
  %14 = getelementptr inbounds float, ptr %13, i64 0
  %15 = load float, ptr %14, align 4
  %16 = fsub float %12, %15
  store float %16, ptr %7, align 4
  %17 = load ptr, ptr %4, align 8
  %18 = getelementptr inbounds float, ptr %17, i64 1
  %19 = load float, ptr %18, align 4
  %20 = load ptr, ptr %5, align 8
  %21 = getelementptr inbounds float, ptr %20, i64 1
  %22 = load float, ptr %21, align 4
  %23 = fsub float %19, %22
  store float %23, ptr %8, align 4
  %24 = load ptr, ptr %4, align 8
  %25 = getelementptr inbounds float, ptr %24, i64 2
  %26 = load float, ptr %25, align 4
  %27 = load ptr, ptr %5, align 8
  %28 = getelementptr inbounds float, ptr %27, i64 2
  %29 = load float, ptr %28, align 4
  %30 = fsub float %26, %29
  store float %30, ptr %9, align 4
  %31 = load float, ptr %7, align 4
  %32 = load ptr, ptr %6, align 8
  %33 = getelementptr inbounds float, ptr %32, i64 0
  store float %31, ptr %33, align 4
  %34 = load float, ptr %8, align 4
  %35 = load ptr, ptr %6, align 8
  %36 = getelementptr inbounds float, ptr %35, i64 1
  store float %34, ptr %36, align 4
  %37 = load float, ptr %9, align 4
  %38 = load ptr, ptr %6, align 8
  %39 = getelementptr inbounds float, ptr %38, i64 2
  store float %37, ptr %39, align 4
  ret void
}

; Function Attrs: mustprogress nounwind uwtable
define linkonce_odr noundef nonnull align 4 dereferenceable(4) ptr @_ZNK3gmx5boost14stl_interfaces2v118iterator_interfaceINS_12ArrayRefIterIKfEESt26random_access_iterator_tagS5_RS5_PS5_lvEixIS6_EEDTcmpLclsr3stdE7declvalIRT_EEfp_declsr3stdE7declvalISD_EEEl(ptr noundef nonnull align 1 dereferenceable(1) %0, i64 noundef %1) #3 comdat align 2 {
  %3 = alloca ptr, align 8
  %4 = alloca i64, align 8
  %5 = alloca %"struct.gmx::ArrayRefIter", align 8
  store ptr %0, ptr %3, align 8
  store i64 %1, ptr %4, align 8
  %6 = load ptr, ptr %3, align 8
  %7 = call noundef nonnull align 8 dereferenceable(8) ptr @_ZNK3gmx5boost14stl_interfaces2v118iterator_interfaceINS_12ArrayRefIterIKfEESt26random_access_iterator_tagS5_RS5_PS5_lvE7derivedEv(ptr noundef nonnull align 1 dereferenceable(1) %6) #4
  call void @llvm.memcpy.p0.p0.i64(ptr align 8 %5, ptr align 8 %7, i64 8, i1 false)
  %8 = load i64, ptr %4, align 8
  %9 = call noundef nonnull align 8 dereferenceable(8) ptr @_ZN3gmx12ArrayRefIterIKfEpLEl(ptr noundef nonnull align 8 dereferenceable(8) %5, i64 noundef %8) #4
  %10 = call noundef nonnull align 4 dereferenceable(4) ptr @_ZNK3gmx12ArrayRefIterIKfEdeEv(ptr noundef nonnull align 8 dereferenceable(8) %5) #4
  ret ptr %10
}

; Function Attrs: mustprogress nounwind uwtable
define internal void @_ZN12_GLOBAL__N_116spreadBondForcesIL18BondedKernelFlavor1EEEvfPKfiiPA4_fiPA3_f(float noundef %0, ptr noundef %1, i32 noundef %2, i32 noundef %3, ptr noundef %4, i32 noundef %5, ptr noundef %6) #3 {
  %8 = alloca float, align 4
  %9 = alloca ptr, align 8
  %10 = alloca i32, align 4
  %11 = alloca i32, align 4
  %12 = alloca ptr, align 8
  %13 = alloca i32, align 4
  %14 = alloca ptr, align 8
  %15 = alloca i32, align 4
  %16 = alloca float, align 4
  store float %0, ptr %8, align 4
  store ptr %1, ptr %9, align 8
  store i32 %2, ptr %10, align 4
  store i32 %3, ptr %11, align 4
  store ptr %4, ptr %12, align 8
  store i32 %5, ptr %13, align 4
  store ptr %6, ptr %14, align 8
  store i32 0, ptr %15, align 4
  br label %17

17:                                               ; preds = %48, %7
  %18 = load i32, ptr %15, align 4
  %19 = icmp slt i32 %18, 3
  br i1 %19, label %20, label %51

20:                                               ; preds = %17
  %21 = load float, ptr %8, align 4
  %22 = load ptr, ptr %9, align 8
  %23 = load i32, ptr %15, align 4
  %24 = sext i32 %23 to i64
  %25 = getelementptr inbounds float, ptr %22, i64 %24
  %26 = load float, ptr %25, align 4
  %27 = fmul float %21, %26
  store float %27, ptr %16, align 4
  %28 = load float, ptr %16, align 4
  %29 = load ptr, ptr %12, align 8
  %30 = load i32, ptr %10, align 4
  %31 = sext i32 %30 to i64
  %32 = getelementptr inbounds [4 x float], ptr %29, i64 %31
  %33 = load i32, ptr %15, align 4
  %34 = sext i32 %33 to i64
  %35 = getelementptr inbounds [4 x float], ptr %32, i64 0, i64 %34
  %36 = load float, ptr %35, align 4
  %37 = fadd float %36, %28
  store float %37, ptr %35, align 4
  %38 = load float, ptr %16, align 4
  %39 = load ptr, ptr %12, align 8
  %40 = load i32, ptr %11, align 4
  %41 = sext i32 %40 to i64
  %42 = getelementptr inbounds [4 x float], ptr %39, i64 %41
  %43 = load i32, ptr %15, align 4
  %44 = sext i32 %43 to i64
  %45 = getelementptr inbounds [4 x float], ptr %42, i64 0, i64 %44
  %46 = load float, ptr %45, align 4
  %47 = fsub float %46, %38
  store float %47, ptr %45, align 4
  br label %48

48:                                               ; preds = %20
  %49 = load i32, ptr %15, align 4
  %50 = add nsw i32 %49, 1
  store i32 %50, ptr %15, align 4
  br label %17, !llvm.loop !208

51:                                               ; preds = %17
  ret void
}

; Function Attrs: mustprogress nounwind uwtable
define internal noundef float @_ZN3gmxL7invsqrtEf(float noundef %0) #3 {
  %2 = alloca float, align 4
  store float %0, ptr %2, align 4
  %3 = load float, ptr %2, align 4
  %4 = call noundef float @_ZSt4sqrtf(float noundef %3)
  %5 = fdiv float 1.000000e+00, %4
  ret float %5
}

; Function Attrs: mustprogress nounwind uwtable
define internal noundef float @_ZN12_GLOBAL__N_18harmonicEffffffPfS0_(float noundef %0, float noundef %1, float noundef %2, float noundef %3, float noundef %4, float noundef %5, ptr noundef %6, ptr noundef %7) #3 {
  %9 = alloca float, align 4
  %10 = alloca float, align 4
  %11 = alloca float, align 4
  %12 = alloca float, align 4
  %13 = alloca float, align 4
  %14 = alloca float, align 4
  %15 = alloca ptr, align 8
  %16 = alloca ptr, align 8
  %17 = alloca float, align 4
  %18 = alloca float, align 4
  %19 = alloca float, align 4
  %20 = alloca float, align 4
  %21 = alloca float, align 4
  %22 = alloca float, align 4
  %23 = alloca float, align 4
  %24 = alloca float, align 4
  %25 = alloca float, align 4
  store float %0, ptr %9, align 4
  store float %1, ptr %10, align 4
  store float %2, ptr %11, align 4
  store float %3, ptr %12, align 4
  store float %4, ptr %13, align 4
  store float %5, ptr %14, align 4
  store ptr %6, ptr %15, align 8
  store ptr %7, ptr %16, align 8
  store float 5.000000e-01, ptr %17, align 4
  %26 = load float, ptr %14, align 4
  %27 = fpext float %26 to double
  %28 = fsub double 1.000000e+00, %27
  %29 = fptrunc double %28 to float
  store float %29, ptr %18, align 4
  %30 = load float, ptr %18, align 4
  %31 = load float, ptr %9, align 4
  %32 = load float, ptr %14, align 4
  %33 = load float, ptr %10, align 4
  %34 = fmul float %32, %33
  %35 = call float @llvm.fmuladd.f32(float %30, float %31, float %34)
  store float %35, ptr %19, align 4
  %36 = load float, ptr %18, align 4
  %37 = load float, ptr %11, align 4
  %38 = load float, ptr %14, align 4
  %39 = load float, ptr %12, align 4
  %40 = fmul float %38, %39
  %41 = call float @llvm.fmuladd.f32(float %36, float %37, float %40)
  store float %41, ptr %20, align 4
  %42 = load float, ptr %13, align 4
  %43 = load float, ptr %20, align 4
  %44 = fsub float %42, %43
  store float %44, ptr %21, align 4
  %45 = load float, ptr %21, align 4
  %46 = load float, ptr %21, align 4
  %47 = fmul float %45, %46
  store float %47, ptr %22, align 4
  %48 = load float, ptr %19, align 4
  %49 = fneg float %48
  %50 = load float, ptr %21, align 4
  %51 = fmul float %49, %50
  store float %51, ptr %24, align 4
  %52 = load float, ptr %19, align 4
  %53 = fmul float 5.000000e-01, %52
  %54 = load float, ptr %22, align 4
  %55 = fmul float %53, %54
  store float %55, ptr %23, align 4
  %56 = load float, ptr %10, align 4
  %57 = load float, ptr %9, align 4
  %58 = fsub float %56, %57
  %59 = fmul float 5.000000e-01, %58
  %60 = load float, ptr %22, align 4
  %61 = load float, ptr %11, align 4
  %62 = load float, ptr %12, align 4
  %63 = fsub float %61, %62
  %64 = load float, ptr %19, align 4
  %65 = fmul float %63, %64
  %66 = load float, ptr %21, align 4
  %67 = fmul float %65, %66
  %68 = call float @llvm.fmuladd.f32(float %59, float %60, float %67)
  store float %68, ptr %25, align 4
  %69 = load float, ptr %24, align 4
  %70 = load ptr, ptr %16, align 8
  store float %69, ptr %70, align 4
  %71 = load float, ptr %23, align 4
  %72 = load ptr, ptr %15, align 8
  store float %71, ptr %72, align 4
  %73 = load float, ptr %25, align 4
  ret float %73
}

; Function Attrs: mustprogress nounwind uwtable
define linkonce_odr noundef float @_ZSt4sqrtf(float noundef %0) #3 comdat {
  %2 = alloca float, align 4
  store float %0, ptr %2, align 4
  %3 = load float, ptr %2, align 4
  %4 = call float @sqrtf(float noundef %3) #4
  ret float %4
}

; Function Attrs: mustprogress nounwind uwtable
define internal noundef float @_ZL5iprodPKfS0_(ptr noundef %0, ptr noundef %1) #3 {
  %3 = alloca ptr, align 8
  %4 = alloca ptr, align 8
  store ptr %0, ptr %3, align 8
  store ptr %1, ptr %4, align 8
  %5 = load ptr, ptr %3, align 8
  %6 = getelementptr inbounds float, ptr %5, i64 0
  %7 = load float, ptr %6, align 4
  %8 = load ptr, ptr %4, align 8
  %9 = getelementptr inbounds float, ptr %8, i64 0
  %10 = load float, ptr %9, align 4
  %11 = load ptr, ptr %3, align 8
  %12 = getelementptr inbounds float, ptr %11, i64 1
  %13 = load float, ptr %12, align 4
  %14 = load ptr, ptr %4, align 8
  %15 = getelementptr inbounds float, ptr %14, i64 1
  %16 = load float, ptr %15, align 4
  %17 = fmul float %13, %16
  %18 = call float @llvm.fmuladd.f32(float %7, float %10, float %17)
  %19 = load ptr, ptr %3, align 8
  %20 = getelementptr inbounds float, ptr %19, i64 2
  %21 = load float, ptr %20, align 4
  %22 = load ptr, ptr %4, align 8
  %23 = getelementptr inbounds float, ptr %22, i64 2
  %24 = load float, ptr %23, align 4
  %25 = call float @llvm.fmuladd.f32(float %21, float %24, float %18)
  ret float %25
}

; Function Attrs: mustprogress uwtable
define internal noundef i32 @_ZN12_GLOBAL__N_112pbc_rvec_subEPK5t_pbcPKfS4_Pf(ptr noundef %0, ptr noundef %1, ptr noundef %2, ptr noundef %3) #2 {
  %5 = alloca i32, align 4
  %6 = alloca ptr, align 8
  %7 = alloca ptr, align 8
  %8 = alloca ptr, align 8
  %9 = alloca ptr, align 8
  store ptr %0, ptr %6, align 8
  store ptr %1, ptr %7, align 8
  store ptr %2, ptr %8, align 8
  store ptr %3, ptr %9, align 8
  %10 = load ptr, ptr %6, align 8
  %11 = icmp ne ptr %10, null
  br i1 %11, label %12, label %18

12:                                               ; preds = %4
  %13 = load ptr, ptr %6, align 8
  %14 = load ptr, ptr %7, align 8
  %15 = load ptr, ptr %8, align 8
  %16 = load ptr, ptr %9, align 8
  %17 = call noundef i32 @_Z11pbc_dx_aiucPK5t_pbcPKfS3_Pf(ptr noundef %13, ptr noundef %14, ptr noundef %15, ptr noundef %16)
  store i32 %17, ptr %5, align 4
  br label %22

18:                                               ; preds = %4
  %19 = load ptr, ptr %7, align 8
  %20 = load ptr, ptr %8, align 8
  %21 = load ptr, ptr %9, align 8
  call void @_ZL8rvec_subPKfS0_Pf(ptr noundef %19, ptr noundef %20, ptr noundef %21)
  store i32 22, ptr %5, align 4
  br label %22

22:                                               ; preds = %18, %12
  %23 = load i32, ptr %5, align 4
  ret i32 %23
}

; Function Attrs: mustprogress nounwind uwtable
define linkonce_odr noundef float @_ZN3gmx6squareIfEET_S1_(float noundef %0) #3 comdat {
  %2 = alloca float, align 4
  store float %0, ptr %2, align 4
  %3 = load float, ptr %2, align 4
  %4 = load float, ptr %2, align 4
  %5 = fmul float %3, %4
  ret float %5
}

; Function Attrs: mustprogress nounwind uwtable
define linkonce_odr noundef nonnull align 4 dereferenceable(4) ptr @_ZNK3gmx8ArrayRefIKfEixEm(ptr noundef nonnull align 8 dereferenceable(16) %0, i64 noundef %1) #3 comdat align 2 {
  %3 = alloca ptr, align 8
  %4 = alloca i64, align 8
  store ptr %0, ptr %3, align 8
  store i64 %1, ptr %4, align 8
  %5 = load ptr, ptr %3, align 8
  %6 = getelementptr inbounds %"class.gmx::ArrayRef", ptr %5, i32 0, i32 0
  %7 = load i64, ptr %4, align 8
  %8 = call noundef nonnull align 4 dereferenceable(4) ptr @_ZNK3gmx5boost14stl_interfaces2v118iterator_interfaceINS_12ArrayRefIterIKfEESt26random_access_iterator_tagS5_RS5_PS5_lvEixIS6_EEDTcmpLclsr3stdE7declvalIRT_EEfp_declsr3stdE7declvalISD_EEEl(ptr noundef nonnull align 1 dereferenceable(1) %6, i64 noundef %7) #4
  ret ptr %8
}

; Function Attrs: mustprogress uwtable
define internal noundef float @_ZN12_GLOBAL__N_18polarizeIL18BondedKernelFlavor1EEEfiPKiPK9t_iparamsPA3_KfPA4_fPA3_fPK5t_pbcfPfN3gmx8ArrayRefIS7_EEP8t_fcdataP12t_disresdataP12t_oriresdataPi(i32 noundef %0, ptr noundef %1, ptr noundef %2, ptr noundef %3, ptr noundef %4, ptr noundef %5, ptr noundef %6, float noundef %7, ptr noundef %8, ptr noundef byval(%"class.gmx::ArrayRef") align 8 %9, ptr noundef %10, ptr noundef %11, ptr noundef %12, ptr noundef %13) #2 {
  %15 = alloca i32, align 4
  %16 = alloca ptr, align 8
  %17 = alloca ptr, align 8
  %18 = alloca ptr, align 8
  %19 = alloca ptr, align 8
  %20 = alloca ptr, align 8
  %21 = alloca ptr, align 8
  %22 = alloca float, align 4
  %23 = alloca ptr, align 8
  %24 = alloca ptr, align 8
  %25 = alloca ptr, align 8
  %26 = alloca ptr, align 8
  %27 = alloca ptr, align 8
  %28 = alloca i32, align 4
  %29 = alloca i32, align 4
  %30 = alloca i32, align 4
  %31 = alloca i32, align 4
  %32 = alloca i32, align 4
  %33 = alloca float, align 4
  %34 = alloca float, align 4
  %35 = alloca float, align 4
  %36 = alloca float, align 4
  %37 = alloca float, align 4
  %38 = alloca float, align 4
  %39 = alloca [3 x float], align 4
  store i32 %0, ptr %15, align 4
  store ptr %1, ptr %16, align 8
  store ptr %2, ptr %17, align 8
  store ptr %3, ptr %18, align 8
  store ptr %4, ptr %19, align 8
  store ptr %5, ptr %20, align 8
  store ptr %6, ptr %21, align 8
  store float %7, ptr %22, align 4
  store ptr %8, ptr %23, align 8
  store ptr %10, ptr %24, align 8
  store ptr %11, ptr %25, align 8
  store ptr %12, ptr %26, align 8
  store ptr %13, ptr %27, align 8
  store float 0.000000e+00, ptr %37, align 4
  store i32 0, ptr %28, align 4
  br label %40

40:                                               ; preds = %109, %108, %14
  %41 = load i32, ptr %28, align 4
  %42 = load i32, ptr %15, align 4
  %43 = icmp slt i32 %41, %42
  br i1 %43, label %44, label %124

44:                                               ; preds = %40
  %45 = load ptr, ptr %16, align 8
  %46 = load i32, ptr %28, align 4
  %47 = add nsw i32 %46, 1
  store i32 %47, ptr %28, align 4
  %48 = sext i32 %46 to i64
  %49 = getelementptr inbounds i32, ptr %45, i64 %48
  %50 = load i32, ptr %49, align 4
  store i32 %50, ptr %32, align 4
  %51 = load ptr, ptr %16, align 8
  %52 = load i32, ptr %28, align 4
  %53 = add nsw i32 %52, 1
  store i32 %53, ptr %28, align 4
  %54 = sext i32 %52 to i64
  %55 = getelementptr inbounds i32, ptr %51, i64 %54
  %56 = load i32, ptr %55, align 4
  store i32 %56, ptr %30, align 4
  %57 = load ptr, ptr %16, align 8
  %58 = load i32, ptr %28, align 4
  %59 = add nsw i32 %58, 1
  store i32 %59, ptr %28, align 4
  %60 = sext i32 %58 to i64
  %61 = getelementptr inbounds i32, ptr %57, i64 %60
  %62 = load i32, ptr %61, align 4
  store i32 %62, ptr %31, align 4
  %63 = load i32, ptr %31, align 4
  %64 = sext i32 %63 to i64
  %65 = call noundef nonnull align 4 dereferenceable(4) ptr @_ZNK3gmx8ArrayRefIKfEixEm(ptr noundef nonnull align 8 dereferenceable(16) %9, i64 noundef %64)
  %66 = load float, ptr %65, align 4
  %67 = call noundef float @_ZN3gmx6squareIfEET_S1_(float noundef %66)
  %68 = fpext float %67 to double
  %69 = fmul double %68, 0x40615DEF44DEAD3D
  %70 = load ptr, ptr %17, align 8
  %71 = load i32, ptr %32, align 4
  %72 = sext i32 %71 to i64
  %73 = getelementptr inbounds %union.t_iparams, ptr %70, i64 %72
  %74 = getelementptr inbounds %struct.anon.9, ptr %73, i32 0, i32 0
  %75 = load float, ptr %74, align 4
  %76 = fpext float %75 to double
  %77 = fdiv double %69, %76
  %78 = fptrunc double %77 to float
  store float %78, ptr %38, align 4
  %79 = load ptr, ptr %21, align 8
  %80 = load ptr, ptr %18, align 8
  %81 = load i32, ptr %30, align 4
  %82 = sext i32 %81 to i64
  %83 = getelementptr inbounds [3 x float], ptr %80, i64 %82
  %84 = getelementptr inbounds [3 x float], ptr %83, i64 0, i64 0
  %85 = load ptr, ptr %18, align 8
  %86 = load i32, ptr %31, align 4
  %87 = sext i32 %86 to i64
  %88 = getelementptr inbounds [3 x float], ptr %85, i64 %87
  %89 = getelementptr inbounds [3 x float], ptr %88, i64 0, i64 0
  %90 = getelementptr inbounds [3 x float], ptr %39, i64 0, i64 0
  %91 = call noundef i32 @_ZN12_GLOBAL__N_112pbc_rvec_subEPK5t_pbcPKfS4_Pf(ptr noundef %79, ptr noundef %84, ptr noundef %89, ptr noundef %90)
  store i32 %91, ptr %29, align 4
  %92 = getelementptr inbounds [3 x float], ptr %39, i64 0, i64 0
  %93 = getelementptr inbounds [3 x float], ptr %39, i64 0, i64 0
  %94 = call noundef float @_ZL5iprodPKfS0_(ptr noundef %92, ptr noundef %93)
  store float %94, ptr %34, align 4
  %95 = load float, ptr %34, align 4
  %96 = call noundef float @_ZSt4sqrtf(float noundef %95)
  store float %96, ptr %33, align 4
  %97 = load float, ptr %38, align 4
  %98 = load float, ptr %38, align 4
  %99 = load float, ptr %33, align 4
  %100 = load float, ptr %22, align 4
  %101 = call noundef float @_ZN12_GLOBAL__N_18harmonicEffffffPfS0_(float noundef %97, float noundef %98, float noundef 0.000000e+00, float noundef 0.000000e+00, float noundef %99, float noundef %100, ptr noundef %36, ptr noundef %35)
  %102 = load ptr, ptr %23, align 8
  %103 = load float, ptr %102, align 4
  %104 = fadd float %103, %101
  store float %104, ptr %102, align 4
  %105 = load float, ptr %34, align 4
  %106 = fpext float %105 to double
  %107 = fcmp oeq double %106, 0.000000e+00
  br i1 %107, label %108, label %109

108:                                              ; preds = %44
  br label %40, !llvm.loop !102

109:                                              ; preds = %44
  %110 = load float, ptr %36, align 4
  %111 = load float, ptr %37, align 4
  %112 = fadd float %111, %110
  store float %112, ptr %37, align 4
  %113 = load float, ptr %34, align 4
  %114 = call noundef float @_ZN3gmxL7invsqrtEf(float noundef %113)
  %115 = load float, ptr %35, align 4
  %116 = fmul float %115, %114
  store float %116, ptr %35, align 4
  %117 = load float, ptr %35, align 4
  %118 = getelementptr inbounds [3 x float], ptr %39, i64 0, i64 0
  %119 = load i32, ptr %30, align 4
  %120 = load i32, ptr %31, align 4
  %121 = load ptr, ptr %19, align 8
  %122 = load i32, ptr %29, align 4
  %123 = load ptr, ptr %20, align 8
  call void @_ZN12_GLOBAL__N_116spreadBondForcesIL18BondedKernelFlavor1EEEvfPKfiiPA4_fiPA3_f(float noundef %117, ptr noundef %118, i32 noundef %119, i32 noundef %120, ptr noundef %121, i32 noundef %122, ptr noundef %123)
  br label %40, !llvm.loop !102

124:                                              ; preds = %40
  %125 = load float, ptr %37, align 4
  ret float %125
}