; Function Attrs: mustprogress uwtable
define internal noundef float @_ZN12_GLOBAL__N_18polarizeIL18BondedKernelFlavor1EEEfiPKiPK9t_iparamsPA3_KfPA4_fPA3_fPK5t_pbcfPfN3gmx8ArrayRefIS7_EEP8t_fcdataP12t_disresdataP12t_oriresdataPi(i32 noundef %0, ptr nocapture noundef readonly %1, ptr nocapture noundef readonly %2, ptr noundef %3, ptr nocapture noundef %4, ptr nocapture readnone %5, ptr noundef %6, float noundef %7, ptr nocapture noundef %8, ptr nocapture noundef readonly byval(%"class.gmx::ArrayRef") align 8 %9, ptr nocapture readnone %10, ptr nocapture readnone %11, ptr nocapture readnone %12, ptr nocapture readnone %13) #4 {
  %15 = alloca [3 x float], align 8
  %16 = load i64, ptr %9, align 8
  %17 = inttoptr i64 %16 to ptr
  %.not.i = icmp eq ptr %6, null
  %18 = getelementptr inbounds i8, ptr %15, i64 8
  %19 = fsub float 1.000000e+00, %7
  %20 = fmul float %7, 0.000000e+00
  %21 = tail call float @llvm.fmuladd.f32(float %19, float 0.000000e+00, float %20)
  %22 = sext i32 %0 to i64
  br label %.outer

.outer:                                           ; preds = %_ZN12_GLOBAL__N_116spreadBondForcesIL18BondedKernelFlavor1EEEvfPKfiiPA4_fiPA3_f.exit, %14
  %.030.ph = phi float [ %96, %_ZN12_GLOBAL__N_116spreadBondForcesIL18BondedKernelFlavor1EEEvfPKfiiPA4_fiPA3_f.exit ], [ 0.000000e+00, %14 ]
  %.0.ph = phi i64 [ %indvars.iv.next, %_ZN12_GLOBAL__N_116spreadBondForcesIL18BondedKernelFlavor1EEEvfPKfiiPA4_fiPA3_f.exit ], [ 0, %14 ]
  %sext = shl i64 %.0.ph, 32
  %23 = ashr exact i64 %sext, 32
  br label %24

24:                                               ; preds = %.outer, %_ZN12_GLOBAL__N_112pbc_rvec_subEPK5t_pbcPKfS4_Pf.exit
  %indvars.iv = phi i64 [ %23, %.outer ], [ %indvars.iv.next, %_ZN12_GLOBAL__N_112pbc_rvec_subEPK5t_pbcPKfS4_Pf.exit ]
  %25 = icmp slt i64 %indvars.iv, %22
  br i1 %25, label %26, label %97

26:                                               ; preds = %24
  %27 = getelementptr inbounds i32, ptr %1, i64 %indvars.iv
  %28 = load i32, ptr %27, align 4
  %29 = getelementptr i8, ptr %27, i64 4
  %30 = load i32, ptr %29, align 4
  %indvars.iv.next = add nsw i64 %indvars.iv, 3
  %31 = getelementptr i8, ptr %27, i64 8
  %32 = load i32, ptr %31, align 4
  %33 = sext i32 %32 to i64
  %34 = getelementptr inbounds float, ptr %17, i64 %33
  %35 = load float, ptr %34, align 4
  %36 = fmul float %35, %35
  %37 = fpext float %36 to double
  %38 = fmul double %37, 0x40615DEF44DEAD3D
  %39 = sext i32 %28 to i64
  %40 = getelementptr inbounds %union.t_iparams, ptr %2, i64 %39
  %41 = load float, ptr %40, align 4
  %42 = fpext float %41 to double
  %43 = fdiv double %38, %42
  %44 = fptrunc double %43 to float
  %45 = sext i32 %30 to i64
  %46 = getelementptr inbounds [3 x float], ptr %3, i64 %45
  %47 = getelementptr inbounds [3 x float], ptr %3, i64 %33
  br i1 %.not.i, label %51, label %48

48:                                               ; preds = %26
  %49 = call noundef i32 @_Z11pbc_dx_aiucPK5t_pbcPKfS3_Pf(ptr noundef nonnull %6, ptr noundef %46, ptr noundef %47, ptr noundef nonnull %15)
  %50 = load <2 x float>, ptr %15, align 8
  %.pre47 = load float, ptr %18, align 8
  br label %_ZN12_GLOBAL__N_112pbc_rvec_subEPK5t_pbcPKfS4_Pf.exit

51:                                               ; preds = %26
  %52 = load <2 x float>, ptr %46, align 4
  %53 = load <2 x float>, ptr %47, align 4
  %54 = fsub <2 x float> %52, %53
  %55 = getelementptr inbounds i8, ptr %46, i64 8
  %56 = load float, ptr %55, align 4
  %57 = getelementptr inbounds i8, ptr %47, i64 8
  %58 = load float, ptr %57, align 4
  %59 = fsub float %56, %58
  store <2 x float> %54, ptr %15, align 8
  store float %59, ptr %18, align 8
  br label %_ZN12_GLOBAL__N_112pbc_rvec_subEPK5t_pbcPKfS4_Pf.exit

_ZN12_GLOBAL__N_112pbc_rvec_subEPK5t_pbcPKfS4_Pf.exit: ; preds = %48, %51
  %60 = phi float [ %.pre47, %48 ], [ %59, %51 ]
  %61 = phi <2 x float> [ %50, %48 ], [ %54, %51 ]
  %62 = fmul <2 x float> %61, %61
  %63 = extractelement <2 x float> %62, i64 1
  %64 = extractelement <2 x float> %61, i64 0
  %65 = call float @llvm.fmuladd.f32(float %64, float %64, float %63)
  %66 = call noundef float @llvm.fmuladd.f32(float %60, float %60, float %65)
  %sqrt = call float @llvm.sqrt.f32(float %66)
  %67 = fmul float %44, %7
  %68 = call float @llvm.fmuladd.f32(float %19, float %44, float %67)
  %69 = fsub float %sqrt, %21
  %70 = fmul float %69, %69
  %71 = fsub float %44, %44
  %72 = fmul float %71, 5.000000e-01
  %73 = fmul float %68, 0.000000e+00
  %74 = fmul float %73, %69
  %75 = call noundef float @llvm.fmuladd.f32(float %72, float %70, float %74)
  %76 = load float, ptr %8, align 4
  %77 = fadd float %76, %75
  store float %77, ptr %8, align 4
  %78 = fcmp oeq float %66, 0.000000e+00
  br i1 %78, label %24, label %79, !llvm.loop !104

79:                                               ; preds = %_ZN12_GLOBAL__N_112pbc_rvec_subEPK5t_pbcPKfS4_Pf.exit
  %80 = fmul float %68, 5.000000e-01
  %81 = fneg float %68
  %82 = fmul float %69, %81
  %83 = fdiv float 1.000000e+00, %sqrt
  %84 = fmul float %83, %82
  br label %85

85:                                               ; preds = %85, %79
  %indvars.iv.i = phi i64 [ 0, %79 ], [ %indvars.iv.next.i, %85 ]
  %86 = getelementptr inbounds float, ptr %15, i64 %indvars.iv.i
  %87 = load float, ptr %86, align 4
  %88 = fmul float %84, %87
  %89 = getelementptr inbounds [4 x float], ptr %4, i64 %45, i64 %indvars.iv.i
  %90 = load float, ptr %89, align 4
  %91 = fadd float %90, %88
  store float %91, ptr %89, align 4
  %92 = getelementptr inbounds [4 x float], ptr %4, i64 %33, i64 %indvars.iv.i
  %93 = load float, ptr %92, align 4
  %94 = fsub float %93, %88
  store float %94, ptr %92, align 4
  %indvars.iv.next.i = add nuw nsw i64 %indvars.iv.i, 1
  %exitcond.not.i = icmp eq i64 %indvars.iv.next.i, 3
  br i1 %exitcond.not.i, label %_ZN12_GLOBAL__N_116spreadBondForcesIL18BondedKernelFlavor1EEEvfPKfiiPA4_fiPA3_f.exit, label %85, !llvm.loop !65

_ZN12_GLOBAL__N_116spreadBondForcesIL18BondedKernelFlavor1EEEvfPKfiiPA4_fiPA3_f.exit: ; preds = %85
  %95 = fmul float %80, %70
  %96 = fadd float %.030.ph, %95
  br label %.outer, !llvm.loop !104

97:                                               ; preds = %24
  ret float %.030.ph
}